; Function Attrs: null_pointer_is_valid sspstrong uwtable
define internal void @dissect_gtpv2_uci(ptr noundef %0, ptr noundef %1, ptr noundef %2, ptr readnone captures(none) %3, i16 zeroext %4, i8 zeroext %5, i8 zeroext %6, ptr readnone captures(none) %7) #1 {
  %9 = tail call i32 @dissect_e212_mcc_mnc(ptr noundef %0, ptr noundef %1, ptr noundef %2, i32 noundef 0, i32 noundef 0, i1 noundef zeroext true)
  %10 = load i32, ptr @hf_gtpv2_uci_csg_id_spare, align 4
  %11 = tail call ptr @proto_tree_add_item(ptr noundef %2, i32 noundef %10, ptr noundef %0, i32 noundef 3, i32 noundef 1, i32 noundef 0)
  %12 = load i32, ptr @hf_gtpv2_uci_csg_id, align 4
  %13 = tail call ptr @proto_tree_add_item(ptr noundef %2, i32 noundef %12, ptr noundef %0, i32 noundef 3, i32 noundef 4, i32 noundef 0)
  %14 = load i32, ptr @hf_gtpv2_uci_access_mode, align 4
  %15 = tail call ptr @proto_tree_add_item(ptr noundef %2, i32 noundef %14, ptr noundef %0, i32 noundef 7, i32 noundef 1, i32 noundef 0)
  %16 = load i32, ptr @hf_gtpv2_uci_lcsg, align 4
  %17 = tail call ptr @proto_tree_add_item(ptr noundef %2, i32 noundef %16, ptr noundef %0, i32 noundef 7, i32 noundef 1, i32 noundef 0)
  %18 = load i32, ptr @hf_gtpv2_uci_csg_membership, align 4
  %19 = tail call ptr @proto_tree_add_item(ptr noundef %2, i32 noundef %18, ptr noundef %0, i32 noundef 7, i32 noundef 1, i32 noundef 0)
  ret void
}